(dp0
S'cookies'
p1
(dp2
S'wxloadtime'
p3
S'1515062487_expired_expired_expired_expired_expired'
p4
sS'wxuin'
p5
S'1228177831'
p6
sS'login_frequency'
p7
S'2'
p8
sS'MM_WX_NOTIFY_STATE'
p9
S'1'
p10
sS'MM_WX_SOUND_STATE'
p11
g10
sS'webwx_auth_ticket'
p12
S'CIsBEIP71qIHGoABbTCADrrRuLw/j4SWmhOhvkvdG/DjPLBJgKnV/Jd5e9w2Iaml2HY0EQD+T1dKbBlrHk0VfDzfWKRiTtimCbIy5IiPPgj+NQnOPubED2NKPRSGDiJFh9UNVG4cW9LmGxx/bPx3Z34s7OFVA41BjOPayd3Q2L5sMBA8MNu8OwbzLzk='
p13
sS'last_wxuin'
p14
g6
sS'webwxuvid'
p15
S'7cee8c6bc6761e27e2f01811aa39545949c67fc9b196fc1fd25d8971af591724fae9e901a9534ac867dc59a8a1b4b950'
p16
sS'wxpluginkey'
p17
S'1515062487_expired_expired_expired_expired'
p18
sS'mm_lang'
p19
S'zh_CN'
p20
ssS'version'
p21
S'1.3.10'
p22
sS'storage'
p23
(dp24
S'userName'
p25
V
p26
sS'lastInputUserName'
p27
NsS'memberList'
p28
ccopy_reg
_reconstructor
p29
(citchat.storage.templates
ContactList
p30
c__builtin__
list
p31
(lp32
g29
(citchat.storage.templates
User
p33
c__builtin__
dict
p34
(dp35
S'UserName'
p36
g26
sS'City'
p37
S''
p38
sS'DisplayName'
p39
g38
sS'UniFriend'
p40
I0
sS'OwnerUin'
p41
I0
sS'MemberList'
p42
g29
(g30
g31
(lp43
tp44
Rp45
I1
bsS'PYQuanPin'
p46
g26
sS'RemarkPYInitial'
p47
g26
sS'Uin'
p48
I0
sS'AppAccountFlag'
p49
I0
sS'VerifyFlag'
p50
I0
sS'Province'
p51
g38
sS'KeyWord'
p52
g38
sS'RemarkName'
p53
g26
sS'PYInitial'
p54
g26
sS'ChatRoomId'
p55
I0
sS'HideInputBarFlag'
p56
I0
sVHeadImgFlag
p57
I0
sS'EncryChatRoomId'
p58
g38
sS'AttrStatus'
p59
I0
sS'SnsFlag'
p60
I0
sS'MemberCount'
p61
I0
sVWebWxPluginSwitch
p62
I0
sS'Alias'
p63
g38
sS'Signature'
p64
g26
sS'ContactFlag'
p65
I0
sS'NickName'
p66
g26
sS'RemarkPYQuanPin'
p67
g26
sS'HeadImgUrl'
p68
g26
sS'Sex'
p69
I0
sS'StarFriend'
p70
I0
sS'Statues'
p71
I0
stp72
Rp73
I1
batp74
Rp75
I1
bsS'chatroomList'
p76
g29
(g30
g31
(lp77
tp78
Rp79
I1
bsS'nickName'
p80
g26
sS'mpList'
p81
g29
(g30
g31
(lp82
tp83
Rp84
I1
bssS'loginInfo'
p85
(dp86
S'SyncKey'
p87
(dp88
VCount
p89
I0
sVList
p90
(lp91
ssS'syncUrl'
p92
S'https://webpush.wx2.qq.com/cgi-bin/mmwebwx-bin'
p93
sS'skey'
p94
V@crypt_60e77b5_936f91ebdaeb3a10682bc611cd4f03d4
p95
sS'wxuin'
p96
V1228177831
p97
sS'synckey'
p98
g38
sS'url'
p99
Vhttps://wx2.qq.com/cgi-bin/mmwebwx-bin
p100
sS'pass_ticket'
p101
VGqXs8eqI79UKbaJe27JIDFZroPQ4HHEY9GUO7EkfJkxbiYJUPrj2K%2Ft%2BAJQXKTVz
p102
sS'wxsid'
p103
VRck77GBAv0yo3uqM
p104
sS'User'
p105
g29
(g33
g34
(dp106
g36
g26
sg37
g38
sg39
g38
sg40
I0
sg42
g45
sg46
g26
sg47
g26
sg69
I0
sg49
I0
sg50
I0
sg51
g38
sg52
g38
sg53
g26
sg54
g26
sg55
I0
sg56
I0
sg57
I0
sg58
g38
sg59
I0
sg62
I0
sg60
I0
sg61
I0
sg41
I0
sg63
g38
sg64
g26
sg65
I0
sg66
g26
sg67
g26
sg68
g26
sg48
I0
sg70
I0
sg71
I0
stp107
Rp108
I1
bsS'InviteStartCount'
p109
I0
sS'fileUrl'
p110
S'https://file.wx2.qq.com/cgi-bin/mmwebwx-bin'
p111
sS'BaseRequest'
p112
(dp113
sS'deviceid'
p114
S'e611129258276268'
p115
ss.